target datalayout = "e-m:e-p270:32:32-p271:32:32-p272:64:64-i64:64-i128:128-f80:128-n8:16:32:64-S128"
target triple = "x86_64-pc-linux-gnu"

@.str = private unnamed_addr constant [33 x i8] c"../openssl/crypto/x509/v3_conf.c\00", align 1
@__func__.X509V3_EXT_i2d = private unnamed_addr constant [15 x i8] c"X509V3_EXT_i2d\00", align 1

; Function Attrs: nounwind uwtable
define ptr @X509V3_EXT_i2d(i32 noundef %0, i32 noundef %1, ptr noundef %2) #0 {
  %4 = alloca ptr, align 8
  %5 = alloca i32, align 4
  %6 = alloca i32, align 4
  %7 = alloca ptr, align 8
  %8 = alloca ptr, align 8
  %9 = alloca i32, align 4
  store i32 %0, ptr %5, align 4, !tbaa !12
  store i32 %1, ptr %6, align 4, !tbaa !12
  store ptr %2, ptr %7, align 8, !tbaa !37
  call void @llvm.lifetime.start.p0(i64 8, ptr %8) #5
  %10 = load i32, ptr %5, align 4, !tbaa !12
  %11 = call ptr @X509V3_EXT_get_nid(i32 noundef %10)
  store ptr %11, ptr %8, align 8, !tbaa !31
  %12 = icmp eq ptr %11, null
  br i1 %12, label %13, label %14

13:                                               ; preds = %3
  call void @ERR_new()
  call void @ERR_set_debug(ptr noundef @.str, i32 noundef 199, ptr noundef @__func__.X509V3_EXT_i2d)
  call void (i32, i32, ptr, ...) @ERR_set_error(i32 noundef 34, i32 noundef 129, ptr noundef null)
  store ptr null, ptr %4, align 8
  store i32 1, ptr %9, align 4
  br label %20

14:                                               ; preds = %3
  %15 = load ptr, ptr %8, align 8, !tbaa !31
  %16 = load i32, ptr %5, align 4, !tbaa !12
  %17 = load i32, ptr %6, align 4, !tbaa !12
  %18 = load ptr, ptr %7, align 8, !tbaa !37
  %19 = call ptr @do_ext_i2d(ptr noundef %15, i32 noundef %16, i32 noundef %17, ptr noundef %18)
  store ptr %19, ptr %4, align 8
  store i32 1, ptr %9, align 4
  br label %20

20:                                               ; preds = %14, %13
  call void @llvm.lifetime.end.p0(i64 8, ptr %8) #5
  %21 = load ptr, ptr %4, align 8
  ret ptr %21
}