; Function Attrs: nounwind uwtable
define ptr @X509V3_EXT_i2d(i32 noundef %0, i32 noundef %1, ptr noundef %2) local_unnamed_addr #0 {
  %4 = tail call ptr @X509V3_EXT_get_nid(i32 noundef %0) #6
  %5 = icmp eq ptr %4, null
  br i1 %5, label %6, label %7

6:                                                ; preds = %3
  tail call void @ERR_new() #6
  tail call void @ERR_set_debug(ptr noundef nonnull @.str, i32 noundef 199, ptr noundef nonnull @__func__.X509V3_EXT_i2d) #6
  tail call void (i32, i32, ptr, ...) @ERR_set_error(i32 noundef 34, i32 noundef 129, ptr noundef null) #6
  br label %9

7:                                                ; preds = %3
  %8 = tail call fastcc ptr @do_ext_i2d(ptr noundef %4, i32 noundef %0, i32 noundef %1, ptr noundef %2)
  br label %9

9:                                                ; preds = %7, %6
  %.0 = phi ptr [ null, %6 ], [ %8, %7 ]
  ret ptr %.0
}